target datalayout = "e-m:e-p270:32:32-p271:32:32-p272:64:64-i64:64-i128:128-f80:128-n8:16:32:64-S128"
target triple = "x86_64-pc-linux-gnu"

%struct.MvcCubeStruct = type { ptr, i32, i32, [1 x i32] }

; Function Attrs: nounwind uwtable
define i32 @Mvc_CubeCompareIntUnderMask(ptr noundef %0, ptr noundef %1, ptr noundef %2) #0 {
  %4 = alloca i32, align 4
  %5 = alloca ptr, align 8
  %6 = alloca ptr, align 8
  %7 = alloca ptr, align 8
  %8 = alloca i32, align 4
  %9 = alloca i32, align 4
  %10 = alloca i32, align 4
  %11 = alloca i32, align 4
  store ptr %0, ptr %5, align 8, !tbaa !3
  store ptr %1, ptr %6, align 8, !tbaa !3
  store ptr %2, ptr %7, align 8, !tbaa !3
  call void @llvm.lifetime.start.p0(i64 4, ptr %8) #2
  call void @llvm.lifetime.start.p0(i64 4, ptr %9) #2
  %12 = load ptr, ptr %5, align 8, !tbaa !3
  %13 = getelementptr inbounds nuw %struct.MvcCubeStruct, ptr %12, i32 0, i32 1
  %14 = load i32, ptr %13, align 8
  %15 = and i32 %14, 16777215
  %16 = icmp eq i32 %15, 0
  br i1 %16, label %17, label %46

17:                                               ; preds = %3
  %18 = load ptr, ptr %5, align 8, !tbaa !3
  %19 = getelementptr inbounds nuw %struct.MvcCubeStruct, ptr %18, i32 0, i32 3
  %20 = getelementptr inbounds [1 x i32], ptr %19, i64 0, i64 0
  %21 = load i32, ptr %20, align 8, !tbaa !8
  %22 = load ptr, ptr %7, align 8, !tbaa !3
  %23 = getelementptr inbounds nuw %struct.MvcCubeStruct, ptr %22, i32 0, i32 3
  %24 = getelementptr inbounds [1 x i32], ptr %23, i64 0, i64 0
  %25 = load i32, ptr %24, align 8, !tbaa !8
  %26 = and i32 %21, %25
  store i32 %26, ptr %8, align 4, !tbaa !8
  %27 = load ptr, ptr %6, align 8, !tbaa !3
  %28 = getelementptr inbounds nuw %struct.MvcCubeStruct, ptr %27, i32 0, i32 3
  %29 = getelementptr inbounds [1 x i32], ptr %28, i64 0, i64 0
  %30 = load i32, ptr %29, align 8, !tbaa !8
  %31 = load ptr, ptr %7, align 8, !tbaa !3
  %32 = getelementptr inbounds nuw %struct.MvcCubeStruct, ptr %31, i32 0, i32 3
  %33 = getelementptr inbounds [1 x i32], ptr %32, i64 0, i64 0
  %34 = load i32, ptr %33, align 8, !tbaa !8
  %35 = and i32 %30, %34
  store i32 %35, ptr %9, align 4, !tbaa !8
  %36 = load i32, ptr %8, align 4, !tbaa !8
  %37 = load i32, ptr %9, align 4, !tbaa !8
  %38 = icmp ult i32 %36, %37
  br i1 %38, label %39, label %40

39:                                               ; preds = %17
  store i32 -1, ptr %4, align 4
  store i32 1, ptr %10, align 4
  br label %159

40:                                               ; preds = %17
  %41 = load i32, ptr %8, align 4, !tbaa !8
  %42 = load i32, ptr %9, align 4, !tbaa !8
  %43 = icmp ugt i32 %41, %42
  br i1 %43, label %44, label %45

44:                                               ; preds = %40
  store i32 1, ptr %4, align 4
  store i32 1, ptr %10, align 4
  br label %159

45:                                               ; preds = %40
  store i32 0, ptr %4, align 4
  store i32 1, ptr %10, align 4
  br label %159

46:                                               ; preds = %3
  %47 = load ptr, ptr %5, align 8, !tbaa !3
  %48 = getelementptr inbounds nuw %struct.MvcCubeStruct, ptr %47, i32 0, i32 1
  %49 = load i32, ptr %48, align 8
  %50 = and i32 %49, 16777215
  %51 = icmp eq i32 %50, 1
  br i1 %51, label %52, label %109

52:                                               ; preds = %46
  %53 = load ptr, ptr %5, align 8, !tbaa !3
  %54 = getelementptr inbounds nuw %struct.MvcCubeStruct, ptr %53, i32 0, i32 3
  %55 = getelementptr inbounds [1 x i32], ptr %54, i64 0, i64 1
  %56 = load i32, ptr %55, align 4, !tbaa !8
  %57 = load ptr, ptr %7, align 8, !tbaa !3
  %58 = getelementptr inbounds nuw %struct.MvcCubeStruct, ptr %57, i32 0, i32 3
  %59 = getelementptr inbounds [1 x i32], ptr %58, i64 0, i64 1
  %60 = load i32, ptr %59, align 4, !tbaa !8
  %61 = and i32 %56, %60
  store i32 %61, ptr %8, align 4, !tbaa !8
  %62 = load ptr, ptr %6, align 8, !tbaa !3
  %63 = getelementptr inbounds nuw %struct.MvcCubeStruct, ptr %62, i32 0, i32 3
  %64 = getelementptr inbounds [1 x i32], ptr %63, i64 0, i64 1
  %65 = load i32, ptr %64, align 4, !tbaa !8
  %66 = load ptr, ptr %7, align 8, !tbaa !3
  %67 = getelementptr inbounds nuw %struct.MvcCubeStruct, ptr %66, i32 0, i32 3
  %68 = getelementptr inbounds [1 x i32], ptr %67, i64 0, i64 1
  %69 = load i32, ptr %68, align 4, !tbaa !8
  %70 = and i32 %65, %69
  store i32 %70, ptr %9, align 4, !tbaa !8
  %71 = load i32, ptr %8, align 4, !tbaa !8
  %72 = load i32, ptr %9, align 4, !tbaa !8
  %73 = icmp ult i32 %71, %72
  br i1 %73, label %74, label %75

74:                                               ; preds = %52
  store i32 -1, ptr %4, align 4
  store i32 1, ptr %10, align 4
  br label %159

75:                                               ; preds = %52
  %76 = load i32, ptr %8, align 4, !tbaa !8
  %77 = load i32, ptr %9, align 4, !tbaa !8
  %78 = icmp ugt i32 %76, %77
  br i1 %78, label %79, label %80

79:                                               ; preds = %75
  store i32 1, ptr %4, align 4
  store i32 1, ptr %10, align 4
  br label %159

80:                                               ; preds = %75
  %81 = load ptr, ptr %5, align 8, !tbaa !3
  %82 = getelementptr inbounds nuw %struct.MvcCubeStruct, ptr %81, i32 0, i32 3
  %83 = getelementptr inbounds [1 x i32], ptr %82, i64 0, i64 0
  %84 = load i32, ptr %83, align 8, !tbaa !8
  %85 = load ptr, ptr %7, align 8, !tbaa !3
  %86 = getelementptr inbounds nuw %struct.MvcCubeStruct, ptr %85, i32 0, i32 3
  %87 = getelementptr inbounds [1 x i32], ptr %86, i64 0, i64 0
  %88 = load i32, ptr %87, align 8, !tbaa !8
  %89 = and i32 %84, %88
  store i32 %89, ptr %8, align 4, !tbaa !8
  %90 = load ptr, ptr %6, align 8, !tbaa !3
  %91 = getelementptr inbounds nuw %struct.MvcCubeStruct, ptr %90, i32 0, i32 3
  %92 = getelementptr inbounds [1 x i32], ptr %91, i64 0, i64 0
  %93 = load i32, ptr %92, align 8, !tbaa !8
  %94 = load ptr, ptr %7, align 8, !tbaa !3
  %95 = getelementptr inbounds nuw %struct.MvcCubeStruct, ptr %94, i32 0, i32 3
  %96 = getelementptr inbounds [1 x i32], ptr %95, i64 0, i64 0
  %97 = load i32, ptr %96, align 8, !tbaa !8
  %98 = and i32 %93, %97
  store i32 %98, ptr %9, align 4, !tbaa !8
  %99 = load i32, ptr %8, align 4, !tbaa !8
  %100 = load i32, ptr %9, align 4, !tbaa !8
  %101 = icmp ult i32 %99, %100
  br i1 %101, label %102, label %103

102:                                              ; preds = %80
  store i32 -1, ptr %4, align 4
  store i32 1, ptr %10, align 4
  br label %159

103:                                              ; preds = %80
  %104 = load i32, ptr %8, align 4, !tbaa !8
  %105 = load i32, ptr %9, align 4, !tbaa !8
  %106 = icmp ugt i32 %104, %105
  br i1 %106, label %107, label %108

107:                                              ; preds = %103
  store i32 1, ptr %4, align 4
  store i32 1, ptr %10, align 4
  br label %159

108:                                              ; preds = %103
  store i32 0, ptr %4, align 4
  store i32 1, ptr %10, align 4
  br label %159

109:                                              ; preds = %46
  call void @llvm.lifetime.start.p0(i64 4, ptr %11) #2
  %110 = load ptr, ptr %5, align 8, !tbaa !3
  %111 = getelementptr inbounds nuw %struct.MvcCubeStruct, ptr %110, i32 0, i32 1
  %112 = load i32, ptr %111, align 8
  %113 = and i32 %112, 16777215
  store i32 %113, ptr %11, align 4, !tbaa !8
  br label %114

114:                                              ; preds = %154, %109
  %115 = load i32, ptr %11, align 4, !tbaa !8
  %116 = icmp sge i32 %115, 0
  br i1 %116, label %117, label %157

117:                                              ; preds = %114
  %118 = load ptr, ptr %5, align 8, !tbaa !3
  %119 = getelementptr inbounds nuw %struct.MvcCubeStruct, ptr %118, i32 0, i32 3
  %120 = load i32, ptr %11, align 4, !tbaa !8
  %121 = sext i32 %120 to i64
  %122 = getelementptr inbounds [1 x i32], ptr %119, i64 0, i64 %121
  %123 = load i32, ptr %122, align 4, !tbaa !8
  %124 = load ptr, ptr %7, align 8, !tbaa !3
  %125 = getelementptr inbounds nuw %struct.MvcCubeStruct, ptr %124, i32 0, i32 3
  %126 = load i32, ptr %11, align 4, !tbaa !8
  %127 = sext i32 %126 to i64
  %128 = getelementptr inbounds [1 x i32], ptr %125, i64 0, i64 %127
  %129 = load i32, ptr %128, align 4, !tbaa !8
  %130 = and i32 %123, %129
  store i32 %130, ptr %8, align 4, !tbaa !8
  %131 = load ptr, ptr %6, align 8, !tbaa !3
  %132 = getelementptr inbounds nuw %struct.MvcCubeStruct, ptr %131, i32 0, i32 3
  %133 = load i32, ptr %11, align 4, !tbaa !8
  %134 = sext i32 %133 to i64
  %135 = getelementptr inbounds [1 x i32], ptr %132, i64 0, i64 %134
  %136 = load i32, ptr %135, align 4, !tbaa !8
  %137 = load ptr, ptr %7, align 8, !tbaa !3
  %138 = getelementptr inbounds nuw %struct.MvcCubeStruct, ptr %137, i32 0, i32 3
  %139 = load i32, ptr %11, align 4, !tbaa !8
  %140 = sext i32 %139 to i64
  %141 = getelementptr inbounds [1 x i32], ptr %138, i64 0, i64 %140
  %142 = load i32, ptr %141, align 4, !tbaa !8
  %143 = and i32 %136, %142
  store i32 %143, ptr %9, align 4, !tbaa !8
  %144 = load i32, ptr %8, align 4, !tbaa !8
  %145 = load i32, ptr %9, align 4, !tbaa !8
  %146 = icmp ult i32 %144, %145
  br i1 %146, label %147, label %148

147:                                              ; preds = %117
  store i32 -1, ptr %4, align 4
  store i32 1, ptr %10, align 4
  br label %158

148:                                              ; preds = %117
  %149 = load i32, ptr %8, align 4, !tbaa !8
  %150 = load i32, ptr %9, align 4, !tbaa !8
  %151 = icmp ugt i32 %149, %150
  br i1 %151, label %152, label %153

152:                                              ; preds = %148
  store i32 1, ptr %4, align 4
  store i32 1, ptr %10, align 4
  br label %158

153:                                              ; preds = %148
  br label %154

154:                                              ; preds = %153
  %155 = load i32, ptr %11, align 4, !tbaa !8
  %156 = add nsw i32 %155, -1
  store i32 %156, ptr %11, align 4, !tbaa !8
  br label %114, !llvm.loop !15

157:                                              ; preds = %114
  store i32 0, ptr %4, align 4
  store i32 1, ptr %10, align 4
  br label %158

158:                                              ; preds = %157, %152, %147
  call void @llvm.lifetime.end.p0(i64 4, ptr %11) #2
  br label %159

159:                                              ; preds = %158, %108, %107, %102, %79, %74, %45, %44, %39
  call void @llvm.lifetime.end.p0(i64 4, ptr %9) #2
  call void @llvm.lifetime.end.p0(i64 4, ptr %8) #2
  %160 = load i32, ptr %4, align 4
  ret i32 %160
}