; Function Attrs: nofree norecurse nosync nounwind memory(argmem: read) uwtable
define range(i32 -1, 2) i32 @Mvc_CubeCompareIntUnderMask(ptr noundef readonly captures(none) %0, ptr noundef readonly captures(none) %1, ptr noundef readonly captures(none) %2) local_unnamed_addr #0 {
  %4 = getelementptr inbounds nuw i8, ptr %0, i64 8
  %5 = load i32, ptr %4, align 8
  %6 = and i32 %5, 16777215
  %7 = getelementptr inbounds nuw i8, ptr %0, i64 16
  switch i32 %6, label %.preheader [
    i32 0, label %10
    i32 1, label %21
  ]

.preheader:                                       ; preds = %3
  %8 = getelementptr inbounds nuw i8, ptr %2, i64 16
  %9 = getelementptr inbounds nuw i8, ptr %1, i64 16
  br label %47

10:                                               ; preds = %3
  %11 = load i32, ptr %7, align 8, !tbaa !3
  %12 = getelementptr inbounds nuw i8, ptr %2, i64 16
  %13 = load i32, ptr %12, align 8, !tbaa !3
  %14 = and i32 %13, %11
  %15 = getelementptr inbounds nuw i8, ptr %1, i64 16
  %16 = load i32, ptr %15, align 8, !tbaa !3
  %17 = and i32 %16, %13
  %18 = icmp ult i32 %14, %17
  br i1 %18, label %.loopexit, label %19

19:                                               ; preds = %10
  %20 = icmp ugt i32 %14, %17
  %. = zext i1 %20 to i32
  br label %.loopexit

21:                                               ; preds = %3
  %22 = getelementptr inbounds nuw i8, ptr %0, i64 20
  %23 = load i32, ptr %22, align 4, !tbaa !3
  %24 = getelementptr inbounds nuw i8, ptr %2, i64 16
  %25 = getelementptr inbounds nuw i8, ptr %2, i64 20
  %26 = load i32, ptr %25, align 4, !tbaa !3
  %27 = and i32 %26, %23
  %28 = getelementptr inbounds nuw i8, ptr %1, i64 16
  %29 = getelementptr inbounds nuw i8, ptr %1, i64 20
  %30 = load i32, ptr %29, align 4, !tbaa !3
  %31 = and i32 %30, %26
  %32 = icmp ult i32 %27, %31
  br i1 %32, label %.loopexit, label %33

33:                                               ; preds = %21
  %34 = icmp ugt i32 %27, %31
  br i1 %34, label %.loopexit, label %35

35:                                               ; preds = %33
  %36 = load i32, ptr %7, align 8, !tbaa !3
  %37 = load i32, ptr %24, align 8, !tbaa !3
  %38 = and i32 %37, %36
  %39 = load i32, ptr %28, align 8, !tbaa !3
  %40 = and i32 %39, %37
  %41 = icmp ult i32 %38, %40
  br i1 %41, label %.loopexit, label %42

42:                                               ; preds = %35
  %43 = icmp ugt i32 %38, %40
  %.51 = zext i1 %43 to i32
  br label %.loopexit

44:                                               ; preds = %58
  %45 = add nsw i32 %.052, -1
  %46 = icmp sgt i32 %.052, 0
  br i1 %46, label %47, label %.loopexit, !llvm.loop !14

47:                                               ; preds = %.preheader, %44
  %.052 = phi i32 [ %6, %.preheader ], [ %45, %44 ]
  %48 = zext nneg i32 %.052 to i64
  %49 = getelementptr inbounds nuw [1 x i32], ptr %7, i64 0, i64 %48
  %50 = load i32, ptr %49, align 4, !tbaa !3
  %51 = getelementptr inbounds nuw [1 x i32], ptr %8, i64 0, i64 %48
  %52 = load i32, ptr %51, align 4, !tbaa !3
  %53 = and i32 %52, %50
  %54 = getelementptr inbounds nuw [1 x i32], ptr %9, i64 0, i64 %48
  %55 = load i32, ptr %54, align 4, !tbaa !3
  %56 = and i32 %55, %52
  %57 = icmp ult i32 %53, %56
  br i1 %57, label %.loopexit, label %58

58:                                               ; preds = %47
  %59 = icmp ugt i32 %53, %56
  br i1 %59, label %.loopexit, label %44

.loopexit:                                        ; preds = %47, %58, %44, %42, %35, %33, %21, %19, %10
  %.041 = phi i32 [ -1, %10 ], [ %., %19 ], [ -1, %21 ], [ 1, %33 ], [ -1, %35 ], [ %.51, %42 ], [ 0, %44 ], [ 1, %58 ], [ -1, %47 ]
  ret i32 %.041
}